target datalayout = "e-m:e-p270:32:32-p271:32:32-p272:64:64-i64:64-i128:128-f80:128-n8:16:32:64-S128"
target triple = "x86_64-pc-linux-gnu"

%struct.AVFormatContext = type { ptr, ptr, ptr, ptr, ptr, i32, i32, ptr, i32, ptr, i32, ptr, ptr, i64, i64, i64, i32, i32, i32, i64, i64, ptr, i32, i32, ptr, i32, i32, i32, i32, ptr, i64, i32, i32, %struct.AVIOInterruptCB, i32, i32, i32, i32, i64, i32, i32, i32, i32, i32, i32, i32, i32, i32, i32, i32, i32, i64, i32, i32, i32, i32, i32, ptr, ptr, ptr, ptr, i32, ptr, ptr, ptr, ptr, i32, ptr, ptr, i64, ptr, ptr, ptr, i64 }
%struct.AVIOInterruptCB = type { ptr, ptr }
%struct.HDSContext = type { ptr, i32, i32, i32, i32, ptr, i32 }
%struct.OutputStream = type { i32, i32, ptr, i32, [32768 x i8], [1024 x i8], i64, i64, ptr, i32, i32, i32, i32, ptr, i32, i32, ptr, i32, [2 x ptr], [2 x i32], i32 }
%struct.AVStream = type { ptr, i32, i32, ptr, ptr, %struct.AVRational, i64, i64, i64, i32, i32, %struct.AVRational, ptr, %struct.AVRational, %struct.AVPacket, i32, %struct.AVRational, i32 }
%struct.AVPacket = type { ptr, i64, i64, ptr, i32, i32, i32, ptr, i32, i64, i64, ptr, ptr, %struct.AVRational }
%struct.AVRational = type { i32, i32 }

@.str.22 = private unnamed_addr constant [31 x i8] c"Unable to open %s for writing\0A\00", align 1
@.str.23 = private unnamed_addr constant [13 x i8] c"%s/index.f4m\00", align 1
@.str.24 = private unnamed_addr constant [17 x i8] c"%s/index.f4m.tmp\00", align 1
@.str.25 = private unnamed_addr constant [40 x i8] c"<?xml version=\221.0\22 encoding=\22utf-8\22?>\0A\00", align 1
@.str.26 = private unnamed_addr constant [48 x i8] c"<manifest xmlns=\22http://ns.adobe.com/f4m/1.0\22>\0A\00", align 1
@.str.27 = private unnamed_addr constant [14 x i8] c"\09<id>%s</id>\0A\00", align 1
@.str.28 = private unnamed_addr constant [30 x i8] c"\09<streamType>%s</streamType>\0A\00", align 1
@.str.29 = private unnamed_addr constant [9 x i8] c"recorded\00", align 1
@.str.30 = private unnamed_addr constant [5 x i8] c"live\00", align 1
@.str.31 = private unnamed_addr constant [41 x i8] c"\09<deliveryType>streaming</deliveryType>\0A\00", align 1
@.str.32 = private unnamed_addr constant [26 x i8] c"\09<duration>%f</duration>\0A\00", align 1
@.str.33 = private unnamed_addr constant [73 x i8] c"\09<bootstrapInfo profile=\22named\22 url=\22stream%d.abst\22 id=\22bootstrap%d\22 />\0A\00", align 1
@.str.34 = private unnamed_addr constant [68 x i8] c"\09<media bitrate=\22%d\22 url=\22stream%d\22 bootstrapInfoId=\22bootstrap%d\22>\0A\00", align 1
@.str.35 = private unnamed_addr constant [27 x i8] c"\09\09<metadata>%s</metadata>\0A\00", align 1
@.str.36 = private unnamed_addr constant [11 x i8] c"\09</media>\0A\00", align 1
@.str.37 = private unnamed_addr constant [13 x i8] c"</manifest>\0A\00", align 1

; Function Attrs: inlinehint nounwind uwtable
define internal double @av_q2d(i64 %0) #8 {
  %2 = alloca %struct.AVRational, align 4
  store i64 %0, ptr %2, align 4
  %3 = getelementptr inbounds nuw %struct.AVRational, ptr %2, i32 0, i32 0
  %4 = load i32, ptr %3, align 4, !tbaa !92
  %5 = sitofp i32 %4 to double
  %6 = getelementptr inbounds nuw %struct.AVRational, ptr %2, i32 0, i32 1
  %7 = load i32, ptr %6, align 4, !tbaa !93
  %8 = sitofp i32 %7 to double
  %9 = fdiv nsz double %5, %8
  ret double %9
}

; Function Attrs: nounwind uwtable
define internal i32 @write_manifest(ptr noundef %0, i32 noundef %1) #0 {
  %3 = alloca i32, align 4
  %4 = alloca ptr, align 8
  %5 = alloca i32, align 4
  %6 = alloca ptr, align 8
  %7 = alloca ptr, align 8
  %8 = alloca [1024 x i8], align 16
  %9 = alloca [1024 x i8], align 16
  %10 = alloca i32, align 4
  %11 = alloca i32, align 4
  %12 = alloca double, align 8
  %13 = alloca i32, align 4
  %14 = alloca ptr, align 8
  %15 = alloca i32, align 4
  %16 = alloca ptr, align 8
  store ptr %0, ptr %4, align 8, !tbaa !4
  store i32 %1, ptr %5, align 4, !tbaa !28
  call void @llvm.lifetime.start.p0(i64 8, ptr %6) #9
  %17 = load ptr, ptr %4, align 8, !tbaa !4
  %18 = getelementptr inbounds nuw %struct.AVFormatContext, ptr %17, i32 0, i32 3
  %19 = load ptr, ptr %18, align 8, !tbaa !9
  store ptr %19, ptr %6, align 8, !tbaa !26
  call void @llvm.lifetime.start.p0(i64 8, ptr %7) #9
  call void @llvm.lifetime.start.p0(i64 1024, ptr %8) #9
  call void @llvm.lifetime.start.p0(i64 1024, ptr %9) #9
  call void @llvm.lifetime.start.p0(i64 4, ptr %10) #9
  call void @llvm.lifetime.start.p0(i64 4, ptr %11) #9
  call void @llvm.lifetime.start.p0(i64 8, ptr %12) #9
  store double 0.000000e+00, ptr %12, align 8, !tbaa !122
  %20 = load ptr, ptr %6, align 8, !tbaa !26
  %21 = getelementptr inbounds nuw %struct.HDSContext, ptr %20, i32 0, i32 6
  %22 = load i32, ptr %21, align 8, !tbaa !35
  %23 = icmp sgt i32 %22, 0
  br i1 %23, label %24, label %41

24:                                               ; preds = %2
  %25 = load ptr, ptr %6, align 8, !tbaa !26
  %26 = getelementptr inbounds nuw %struct.HDSContext, ptr %25, i32 0, i32 5
  %27 = load ptr, ptr %26, align 8, !tbaa !32
  %28 = getelementptr inbounds %struct.OutputStream, ptr %27, i64 0
  %29 = getelementptr inbounds nuw %struct.OutputStream, ptr %28, i32 0, i32 7
  %30 = load i64, ptr %29, align 8, !tbaa !97
  %31 = sitofp i64 %30 to double
  %32 = load ptr, ptr %4, align 8, !tbaa !4
  %33 = getelementptr inbounds nuw %struct.AVFormatContext, ptr %32, i32 0, i32 7
  %34 = load ptr, ptr %33, align 8, !tbaa !37
  %35 = getelementptr inbounds ptr, ptr %34, i64 0
  %36 = load ptr, ptr %35, align 8, !tbaa !38
  %37 = getelementptr inbounds nuw %struct.AVStream, ptr %36, i32 0, i32 5
  %38 = load i64, ptr %37, align 8
  %39 = call nsz double @av_q2d(i64 %38)
  %40 = fmul nsz double %31, %39
  store double %40, ptr %12, align 8, !tbaa !122
  br label %41

41:                                               ; preds = %24, %2
  %42 = getelementptr inbounds [1024 x i8], ptr %8, i64 0, i64 0
  %43 = load ptr, ptr %4, align 8, !tbaa !4
  %44 = getelementptr inbounds nuw %struct.AVFormatContext, ptr %43, i32 0, i32 12
  %45 = load ptr, ptr %44, align 8, !tbaa !29
  %46 = call i32 (ptr, i64, ptr, ...) @snprintf(ptr noundef %42, i64 noundef 1024, ptr noundef @.str.23, ptr noundef %45) #9
  %47 = getelementptr inbounds [1024 x i8], ptr %9, i64 0, i64 0
  %48 = load ptr, ptr %4, align 8, !tbaa !4
  %49 = getelementptr inbounds nuw %struct.AVFormatContext, ptr %48, i32 0, i32 12
  %50 = load ptr, ptr %49, align 8, !tbaa !29
  %51 = call i32 (ptr, i64, ptr, ...) @snprintf(ptr noundef %47, i64 noundef 1024, ptr noundef @.str.24, ptr noundef %50) #9
  %52 = load ptr, ptr %4, align 8, !tbaa !4
  %53 = getelementptr inbounds nuw %struct.AVFormatContext, ptr %52, i32 0, i32 71
  %54 = load ptr, ptr %53, align 8, !tbaa !110
  %55 = load ptr, ptr %4, align 8, !tbaa !4
  %56 = getelementptr inbounds [1024 x i8], ptr %9, i64 0, i64 0
  %57 = call i32 %54(ptr noundef %55, ptr noundef %7, ptr noundef %56, i32 noundef 2, ptr noundef null)
  store i32 %57, ptr %10, align 4, !tbaa !28
  %58 = load i32, ptr %10, align 4, !tbaa !28
  %59 = icmp slt i32 %58, 0
  br i1 %59, label %60, label %64

60:                                               ; preds = %41
  %61 = load ptr, ptr %4, align 8, !tbaa !4
  %62 = getelementptr inbounds [1024 x i8], ptr %9, i64 0, i64 0
  call void (ptr, i32, ptr, ...) @av_log(ptr noundef %61, i32 noundef 16, ptr noundef @.str.22, ptr noundef %62)
  %63 = load i32, ptr %10, align 4, !tbaa !28
  store i32 %63, ptr %3, align 4
  store i32 1, ptr %13, align 4
  br label %161

64:                                               ; preds = %41
  %65 = load ptr, ptr %7, align 8, !tbaa !118
  %66 = call i32 (ptr, ptr, ...) @avio_printf(ptr noundef %65, ptr noundef @.str.25)
  %67 = load ptr, ptr %7, align 8, !tbaa !118
  %68 = call i32 (ptr, ptr, ...) @avio_printf(ptr noundef %67, ptr noundef @.str.26)
  %69 = load ptr, ptr %7, align 8, !tbaa !118
  %70 = load ptr, ptr %4, align 8, !tbaa !4
  %71 = getelementptr inbounds nuw %struct.AVFormatContext, ptr %70, i32 0, i32 12
  %72 = load ptr, ptr %71, align 8, !tbaa !29
  %73 = call ptr @av_basename(ptr noundef %72)
  %74 = call i32 (ptr, ptr, ...) @avio_printf(ptr noundef %69, ptr noundef @.str.27, ptr noundef %73)
  %75 = load ptr, ptr %7, align 8, !tbaa !118
  %76 = load i32, ptr %5, align 4, !tbaa !28
  %77 = icmp ne i32 %76, 0
  %78 = select i1 %77, ptr @.str.29, ptr @.str.30
  %79 = call i32 (ptr, ptr, ...) @avio_printf(ptr noundef %75, ptr noundef @.str.28, ptr noundef %78)
  %80 = load ptr, ptr %7, align 8, !tbaa !118
  %81 = call i32 (ptr, ptr, ...) @avio_printf(ptr noundef %80, ptr noundef @.str.31)
  %82 = load i32, ptr %5, align 4, !tbaa !28
  %83 = icmp ne i32 %82, 0
  br i1 %83, label %84, label %88

84:                                               ; preds = %64
  %85 = load ptr, ptr %7, align 8, !tbaa !118
  %86 = load double, ptr %12, align 8, !tbaa !122
  %87 = call i32 (ptr, ptr, ...) @avio_printf(ptr noundef %85, ptr noundef @.str.32, double noundef %86)
  br label %88

88:                                               ; preds = %84, %64
  store i32 0, ptr %11, align 4, !tbaa !28
  br label %89

89:                                               ; preds = %148, %88
  %90 = load i32, ptr %11, align 4, !tbaa !28
  %91 = load ptr, ptr %6, align 8, !tbaa !26
  %92 = getelementptr inbounds nuw %struct.HDSContext, ptr %91, i32 0, i32 6
  %93 = load i32, ptr %92, align 8, !tbaa !35
  %94 = icmp slt i32 %90, %93
  br i1 %94, label %95, label %151

95:                                               ; preds = %89
  call void @llvm.lifetime.start.p0(i64 8, ptr %14) #9
  %96 = load ptr, ptr %6, align 8, !tbaa !26
  %97 = getelementptr inbounds nuw %struct.HDSContext, ptr %96, i32 0, i32 5
  %98 = load ptr, ptr %97, align 8, !tbaa !32
  %99 = load i32, ptr %11, align 4, !tbaa !28
  %100 = sext i32 %99 to i64
  %101 = getelementptr inbounds %struct.OutputStream, ptr %98, i64 %100
  store ptr %101, ptr %14, align 8, !tbaa !36
  call void @llvm.lifetime.start.p0(i64 4, ptr %15) #9
  %102 = load ptr, ptr %14, align 8, !tbaa !36
  %103 = getelementptr inbounds nuw %struct.OutputStream, ptr %102, i32 0, i32 17
  %104 = load i32, ptr %103, align 8, !tbaa !109
  %105 = add nsw i32 %104, 2
  %106 = sdiv i32 %105, 3
  %107 = mul nsw i32 %106, 4
  %108 = add nsw i32 %107, 1
  store i32 %108, ptr %15, align 4, !tbaa !28
  call void @llvm.lifetime.start.p0(i64 8, ptr %16) #9
  %109 = load i32, ptr %15, align 4, !tbaa !28
  %110 = sext i32 %109 to i64
  %111 = call noalias ptr @av_malloc(i64 noundef %110)
  store ptr %111, ptr %16, align 8, !tbaa !108
  %112 = load ptr, ptr %16, align 8, !tbaa !108
  %113 = icmp ne ptr %112, null
  br i1 %113, label %117, label %114

114:                                              ; preds = %95
  %115 = load ptr, ptr %4, align 8, !tbaa !4
  %116 = call i32 @ff_format_io_close(ptr noundef %115, ptr noundef %7)
  store i32 -12, ptr %3, align 4
  store i32 1, ptr %13, align 4
  br label %145

117:                                              ; preds = %95
  %118 = load ptr, ptr %16, align 8, !tbaa !108
  %119 = load i32, ptr %15, align 4, !tbaa !28
  %120 = load ptr, ptr %14, align 8, !tbaa !36
  %121 = getelementptr inbounds nuw %struct.OutputStream, ptr %120, i32 0, i32 16
  %122 = load ptr, ptr %121, align 8, !tbaa !124
  %123 = load ptr, ptr %14, align 8, !tbaa !36
  %124 = getelementptr inbounds nuw %struct.OutputStream, ptr %123, i32 0, i32 17
  %125 = load i32, ptr %124, align 8, !tbaa !109
  %126 = call ptr @av_base64_encode(ptr noundef %118, i32 noundef %119, ptr noundef %122, i32 noundef %125)
  %127 = load ptr, ptr %7, align 8, !tbaa !118
  %128 = load i32, ptr %11, align 4, !tbaa !28
  %129 = load i32, ptr %11, align 4, !tbaa !28
  %130 = call i32 (ptr, ptr, ...) @avio_printf(ptr noundef %127, ptr noundef @.str.33, i32 noundef %128, i32 noundef %129)
  %131 = load ptr, ptr %7, align 8, !tbaa !118
  %132 = load ptr, ptr %14, align 8, !tbaa !36
  %133 = getelementptr inbounds nuw %struct.OutputStream, ptr %132, i32 0, i32 0
  %134 = load i32, ptr %133, align 8, !tbaa !55
  %135 = sdiv i32 %134, 1000
  %136 = load i32, ptr %11, align 4, !tbaa !28
  %137 = load i32, ptr %11, align 4, !tbaa !28
  %138 = call i32 (ptr, ptr, ...) @avio_printf(ptr noundef %131, ptr noundef @.str.34, i32 noundef %135, i32 noundef %136, i32 noundef %137)
  %139 = load ptr, ptr %7, align 8, !tbaa !118
  %140 = load ptr, ptr %16, align 8, !tbaa !108
  %141 = call i32 (ptr, ptr, ...) @avio_printf(ptr noundef %139, ptr noundef @.str.35, ptr noundef %140)
  %142 = load ptr, ptr %7, align 8, !tbaa !118
  %143 = call i32 (ptr, ptr, ...) @avio_printf(ptr noundef %142, ptr noundef @.str.36)
  %144 = load ptr, ptr %16, align 8, !tbaa !108
  call void @av_free(ptr noundef %144)
  store i32 0, ptr %13, align 4
  br label %145

145:                                              ; preds = %117, %114
  call void @llvm.lifetime.end.p0(i64 8, ptr %16) #9
  call void @llvm.lifetime.end.p0(i64 4, ptr %15) #9
  call void @llvm.lifetime.end.p0(i64 8, ptr %14) #9
  %146 = load i32, ptr %13, align 4
  switch i32 %146, label %161 [
    i32 0, label %147
  ]

147:                                              ; preds = %145
  br label %148

148:                                              ; preds = %147
  %149 = load i32, ptr %11, align 4, !tbaa !28
  %150 = add nsw i32 %149, 1
  store i32 %150, ptr %11, align 4, !tbaa !28
  br label %89, !llvm.loop !125

151:                                              ; preds = %89
  %152 = load ptr, ptr %7, align 8, !tbaa !118
  %153 = call i32 (ptr, ptr, ...) @avio_printf(ptr noundef %152, ptr noundef @.str.37)
  %154 = load ptr, ptr %7, align 8, !tbaa !118
  call void @avio_flush(ptr noundef %154)
  %155 = load ptr, ptr %4, align 8, !tbaa !4
  %156 = call i32 @ff_format_io_close(ptr noundef %155, ptr noundef %7)
  %157 = getelementptr inbounds [1024 x i8], ptr %9, i64 0, i64 0
  %158 = getelementptr inbounds [1024 x i8], ptr %8, i64 0, i64 0
  %159 = load ptr, ptr %4, align 8, !tbaa !4
  %160 = call i32 @ff_rename(ptr noundef %157, ptr noundef %158, ptr noundef %159)
  store i32 %160, ptr %3, align 4
  store i32 1, ptr %13, align 4
  br label %161

161:                                              ; preds = %151, %145, %60
  call void @llvm.lifetime.end.p0(i64 8, ptr %12) #9
  call void @llvm.lifetime.end.p0(i64 4, ptr %11) #9
  call void @llvm.lifetime.end.p0(i64 4, ptr %10) #9
  call void @llvm.lifetime.end.p0(i64 1024, ptr %9) #9
  call void @llvm.lifetime.end.p0(i64 1024, ptr %8) #9
  call void @llvm.lifetime.end.p0(i64 8, ptr %7) #9
  call void @llvm.lifetime.end.p0(i64 8, ptr %6) #9
  %162 = load i32, ptr %3, align 4
  ret i32 %162
}