; Function Attrs: nounwind uwtable
define internal fastcc i32 @write_manifest(ptr noundef %0, i32 noundef range(i32 0, 2) %1) unnamed_addr #0 {
  %3 = alloca ptr, align 8
  %4 = alloca [1024 x i8], align 16
  %5 = alloca [1024 x i8], align 16
  %6 = getelementptr inbounds nuw i8, ptr %0, i64 24
  %7 = load ptr, ptr %6, align 8, !tbaa !4
  call void @llvm.lifetime.start.p0(i64 8, ptr nonnull %3) #8
  call void @llvm.lifetime.start.p0(i64 1024, ptr nonnull %4) #8
  call void @llvm.lifetime.start.p0(i64 1024, ptr nonnull %5) #8
  %8 = getelementptr inbounds nuw i8, ptr %7, i64 32
  %9 = load i32, ptr %8, align 8, !tbaa !30
  %10 = icmp sgt i32 %9, 0
  br i1 %10, label %11, label %26

11:                                               ; preds = %2
  %12 = getelementptr inbounds nuw i8, ptr %7, i64 24
  %13 = load ptr, ptr %12, align 8, !tbaa !27
  %14 = getelementptr inbounds nuw i8, ptr %13, i64 33824
  %15 = load i64, ptr %14, align 8, !tbaa !90
  %16 = sitofp i64 %15 to double
  %17 = getelementptr inbounds nuw i8, ptr %0, i64 48
  %18 = load ptr, ptr %17, align 8, !tbaa !31
  %19 = load ptr, ptr %18, align 8, !tbaa !32
  %20 = getelementptr inbounds nuw i8, ptr %19, i64 32
  %21 = load i64, ptr %20, align 8
  %.sroa.0.0.extract.trunc.i = trunc i64 %21 to i32
  %.sroa.2.0.extract.shift.i = lshr i64 %21, 32
  %.sroa.2.0.extract.trunc.i = trunc nuw i64 %.sroa.2.0.extract.shift.i to i32
  %22 = sitofp i32 %.sroa.0.0.extract.trunc.i to double
  %23 = sitofp i32 %.sroa.2.0.extract.trunc.i to double
  %24 = fdiv nsz double %22, %23
  %25 = fmul nsz double %24, %16
  br label %26

26:                                               ; preds = %11, %2
  %.039 = phi nsz double [ %25, %11 ], [ 0.000000e+00, %2 ]
  %27 = getelementptr inbounds nuw i8, ptr %0, i64 88
  %28 = load ptr, ptr %27, align 8, !tbaa !24
  %29 = call i32 (ptr, i64, ptr, ...) @snprintf(ptr noundef nonnull dereferenceable(1) %4, i64 noundef 1024, ptr noundef nonnull @.str.23, ptr noundef %28) #8
  %30 = load ptr, ptr %27, align 8, !tbaa !24
  %31 = call i32 (ptr, i64, ptr, ...) @snprintf(ptr noundef nonnull dereferenceable(1) %5, i64 noundef 1024, ptr noundef nonnull @.str.24, ptr noundef %30) #8
  %32 = getelementptr inbounds nuw i8, ptr %0, i64 448
  %33 = load ptr, ptr %32, align 8, !tbaa !64
  %34 = call i32 %33(ptr noundef nonnull %0, ptr noundef nonnull %3, ptr noundef nonnull %5, i32 noundef 2, ptr noundef null) #8
  %35 = icmp slt i32 %34, 0
  br i1 %35, label %36, label %37

36:                                               ; preds = %26
  call void (ptr, i32, ptr, ...) @av_log(ptr noundef nonnull %0, i32 noundef 16, ptr noundef nonnull @.str.22, ptr noundef nonnull %5) #8
  br label %94

37:                                               ; preds = %26
  %38 = load ptr, ptr %3, align 8, !tbaa !106
  %39 = call i32 (ptr, ptr, ...) @avio_printf(ptr noundef %38, ptr noundef nonnull @.str.25) #8
  %40 = load ptr, ptr %3, align 8, !tbaa !106
  %41 = call i32 (ptr, ptr, ...) @avio_printf(ptr noundef %40, ptr noundef nonnull @.str.26) #8
  %42 = load ptr, ptr %3, align 8, !tbaa !106
  %43 = load ptr, ptr %27, align 8, !tbaa !24
  %44 = call ptr @av_basename(ptr noundef %43) #8
  %45 = call i32 (ptr, ptr, ...) @avio_printf(ptr noundef %42, ptr noundef nonnull @.str.27, ptr noundef %44) #8
  %46 = load ptr, ptr %3, align 8, !tbaa !106
  %.not = icmp eq i32 %1, 0
  %47 = select i1 %.not, ptr @.str.30, ptr @.str.29
  %48 = call i32 (ptr, ptr, ...) @avio_printf(ptr noundef %46, ptr noundef nonnull @.str.28, ptr noundef nonnull %47) #8
  %49 = load ptr, ptr %3, align 8, !tbaa !106
  %50 = call i32 (ptr, ptr, ...) @avio_printf(ptr noundef %49, ptr noundef nonnull @.str.31) #8
  br i1 %.not, label %54, label %51

51:                                               ; preds = %37
  %52 = load ptr, ptr %3, align 8, !tbaa !106
  %53 = call i32 (ptr, ptr, ...) @avio_printf(ptr noundef %52, ptr noundef nonnull @.str.32, double noundef %.039) #8
  br label %54

54:                                               ; preds = %51, %37
  %55 = load i32, ptr %8, align 8, !tbaa !30
  %56 = icmp sgt i32 %55, 0
  br i1 %56, label %.lr.ph, label %._crit_edge

.lr.ph:                                           ; preds = %54
  %57 = getelementptr inbounds nuw i8, ptr %7, i64 24
  br label %58

58:                                               ; preds = %.lr.ph, %70
  %indvars.iv = phi i64 [ 0, %.lr.ph ], [ %indvars.iv.next, %70 ]
  %59 = load ptr, ptr %57, align 8, !tbaa !27
  %60 = getelementptr inbounds nuw %struct.OutputStream, ptr %59, i64 %indvars.iv
  %61 = getelementptr inbounds nuw i8, ptr %60, i64 33880
  %62 = load i32, ptr %61, align 8, !tbaa !99
  %63 = add nsw i32 %62, 2
  %64 = sdiv i32 %63, 3
  %65 = shl nsw i32 %64, 2
  %66 = or disjoint i32 %65, 1
  %67 = sext i32 %66 to i64
  %68 = call noalias ptr @av_malloc(i64 noundef %67) #8
  %.not43.not = icmp eq ptr %68, null
  br i1 %.not43.not, label %.thread, label %70

.thread:                                          ; preds = %58
  %69 = call i32 @ff_format_io_close(ptr noundef nonnull %0, ptr noundef nonnull %3) #8
  br label %94

70:                                               ; preds = %58
  %71 = getelementptr inbounds nuw i8, ptr %60, i64 33872
  %72 = load ptr, ptr %71, align 8, !tbaa !100
  %73 = load i32, ptr %61, align 8, !tbaa !99
  %74 = call ptr @av_base64_encode(ptr noundef nonnull %68, i32 noundef %66, ptr noundef %72, i32 noundef %73) #8
  %75 = load ptr, ptr %3, align 8, !tbaa !106
  %76 = trunc nuw nsw i64 %indvars.iv to i32
  %77 = call i32 (ptr, ptr, ...) @avio_printf(ptr noundef %75, ptr noundef nonnull @.str.33, i32 noundef %76, i32 noundef %76) #8
  %78 = load ptr, ptr %3, align 8, !tbaa !106
  %79 = load i32, ptr %60, align 8, !tbaa !50
  %80 = sdiv i32 %79, 1000
  %81 = call i32 (ptr, ptr, ...) @avio_printf(ptr noundef %78, ptr noundef nonnull @.str.34, i32 noundef %80, i32 noundef %76, i32 noundef %76) #8
  %82 = load ptr, ptr %3, align 8, !tbaa !106
  %83 = call i32 (ptr, ptr, ...) @avio_printf(ptr noundef %82, ptr noundef nonnull @.str.35, ptr noundef nonnull %68) #8
  %84 = load ptr, ptr %3, align 8, !tbaa !106
  %85 = call i32 (ptr, ptr, ...) @avio_printf(ptr noundef %84, ptr noundef nonnull @.str.36) #8
  call void @av_free(ptr noundef nonnull %68) #8
  %indvars.iv.next = add nuw nsw i64 %indvars.iv, 1
  %86 = load i32, ptr %8, align 8, !tbaa !30
  %87 = sext i32 %86 to i64
  %88 = icmp slt i64 %indvars.iv.next, %87
  br i1 %88, label %58, label %._crit_edge, !llvm.loop !110

._crit_edge:                                      ; preds = %70, %54
  %89 = load ptr, ptr %3, align 8, !tbaa !106
  %90 = call i32 (ptr, ptr, ...) @avio_printf(ptr noundef %89, ptr noundef nonnull @.str.37) #8
  %91 = load ptr, ptr %3, align 8, !tbaa !106
  call void @avio_flush(ptr noundef %91) #8
  %92 = call i32 @ff_format_io_close(ptr noundef nonnull %0, ptr noundef nonnull %3) #8
  %93 = call i32 @ff_rename(ptr noundef nonnull %5, ptr noundef nonnull %4, ptr noundef nonnull %0) #8
  br label %94

94:                                               ; preds = %.thread, %._crit_edge, %36
  %.0 = phi i32 [ %34, %36 ], [ %93, %._crit_edge ], [ -12, %.thread ]
  call void @llvm.lifetime.end.p0(i64 1024, ptr nonnull %5) #8
  call void @llvm.lifetime.end.p0(i64 1024, ptr nonnull %4) #8
  call void @llvm.lifetime.end.p0(i64 8, ptr nonnull %3) #8
  ret i32 %.0
}